target datalayout = "e-m:e-p270:32:32-p271:32:32-p272:64:64-i64:64-i128:128-f80:128-n8:16:32:64-S128"
target triple = "x86_64-pc-linux-gnu"

%struct._lv_keyboard_t = type { %struct._lv_buttonmatrix_t, ptr, i32, i8 }
%struct._lv_buttonmatrix_t = type { %struct._lv_obj_t, ptr, ptr, ptr, i32, i32, i32, i8 }
%struct._lv_obj_t = type { ptr, ptr, ptr, ptr, ptr, %struct.lv_area_t, i32, i16, i16 }
%struct.lv_area_t = type { i32, i32, i32, i32 }

; Function Attrs: nounwind uwtable
define void @lv_keyboard_set_textarea(ptr noundef %0, ptr noundef %1) #0 {
  %3 = alloca ptr, align 8
  %4 = alloca ptr, align 8
  %5 = alloca ptr, align 8
  store ptr %0, ptr %3, align 8, !tbaa !8
  store ptr %1, ptr %4, align 8, !tbaa !8
  %6 = load ptr, ptr %4, align 8, !tbaa !8
  %7 = icmp ne ptr %6, null
  br i1 %7, label %8, label %18

8:                                                ; preds = %2
  br label %9

9:                                                ; preds = %8
  %10 = load ptr, ptr %4, align 8, !tbaa !8
  %11 = icmp ne ptr %10, null
  br i1 %11, label %16, label %12

12:                                               ; preds = %9
  br label %13

13:                                               ; preds = %12
  br label %14

14:                                               ; preds = %13
  br label %15

15:                                               ; preds = %14, %15
  br label %15

16:                                               ; preds = %9
  br label %17

17:                                               ; preds = %16
  br label %18

18:                                               ; preds = %17, %2
  br label %19

19:                                               ; preds = %18
  %20 = load ptr, ptr %3, align 8, !tbaa !8
  %21 = icmp ne ptr %20, null
  br i1 %21, label %26, label %22

22:                                               ; preds = %19
  br label %23

23:                                               ; preds = %22
  br label %24

24:                                               ; preds = %23
  br label %25

25:                                               ; preds = %24, %25
  br label %25

26:                                               ; preds = %19
  br label %27

27:                                               ; preds = %26
  call void @llvm.lifetime.start.p0(i64 8, ptr %5) #3
  %28 = load ptr, ptr %3, align 8, !tbaa !8
  store ptr %28, ptr %5, align 8, !tbaa !10
  %29 = load ptr, ptr %5, align 8, !tbaa !10
  %30 = getelementptr inbounds nuw %struct._lv_keyboard_t, ptr %29, i32 0, i32 1
  %31 = load ptr, ptr %30, align 8, !tbaa !12
  %32 = icmp ne ptr %31, null
  br i1 %32, label %33, label %35

33:                                               ; preds = %27
  %34 = load ptr, ptr %3, align 8, !tbaa !8
  call void @lv_obj_remove_state(ptr noundef %34, i16 noundef zeroext 2)
  br label %35

35:                                               ; preds = %33, %27
  %36 = load ptr, ptr %4, align 8, !tbaa !8
  %37 = load ptr, ptr %5, align 8, !tbaa !10
  %38 = getelementptr inbounds nuw %struct._lv_keyboard_t, ptr %37, i32 0, i32 1
  store ptr %36, ptr %38, align 8, !tbaa !12
  %39 = load ptr, ptr %5, align 8, !tbaa !10
  %40 = getelementptr inbounds nuw %struct._lv_keyboard_t, ptr %39, i32 0, i32 1
  %41 = load ptr, ptr %40, align 8, !tbaa !12
  %42 = icmp ne ptr %41, null
  br i1 %42, label %43, label %45

43:                                               ; preds = %35
  %44 = load ptr, ptr %3, align 8, !tbaa !8
  call void @lv_obj_add_state(ptr noundef %44, i16 noundef zeroext 2)
  br label %45

45:                                               ; preds = %43, %35
  call void @llvm.lifetime.end.p0(i64 8, ptr %5) #3
  ret void
}