; Function Attrs: nounwind uwtable
define void @lv_keyboard_set_textarea(ptr noundef %0, ptr noundef %1) local_unnamed_addr #0 {
  %.not = icmp eq ptr %1, null
  %.not11 = icmp eq ptr %0, null
  br i1 %.not11, label %.preheader, label %3

.preheader:                                       ; preds = %2, %.preheader
  br label %.preheader

3:                                                ; preds = %2
  %4 = getelementptr inbounds nuw i8, ptr %0, i64 104
  %5 = load ptr, ptr %4, align 8, !tbaa !3
  %.not12 = icmp eq ptr %5, null
  br i1 %.not12, label %7, label %6

6:                                                ; preds = %3
  tail call void @lv_obj_remove_state(ptr noundef nonnull %0, i16 noundef zeroext 2) #4
  br label %7

7:                                                ; preds = %6, %3
  store ptr %1, ptr %4, align 8, !tbaa !3
  br i1 %.not, label %9, label %8

8:                                                ; preds = %7
  tail call void @lv_obj_add_state(ptr noundef nonnull %0, i16 noundef zeroext 2) #4
  br label %9

9:                                                ; preds = %8, %7
  ret void
}